TN:
SF:/home/runner/work/freertos_cpp_wrappers/freertos_cpp_wrappers/include/freertos_task.hpp
FN:953,956,_ZN8freertos5delayIlSt5ratioILl1ELl1000000000EEEEvNSt6chrono8durationIT_T0_EE
FNDA:2,_ZN8freertos5delayIlSt5ratioILl1ELl1000000000EEEEvNSt6chrono8durationIT_T0_EE
FNF:1
FNH:1
DA:953,2
DA:954,2
DA:955,2
DA:956,2
LF:4
LH:4
end_of_record
TN:
SF:/home/runner/work/freertos_cpp_wrappers/freertos_cpp_wrappers/src/freertos_task.cc
FN:37,37,_ZN8freertos5delayEj
FN:38,40,_ZN8freertos11delay_untilERjj
FN:41,46,_ZN8freertos11delay_untilERKNSt6chrono10time_pointINS0_3_V212system_clockENS0_8durationIlSt5ratioILl1ELl1000000000EEEEEE
FN:47,52,_ZN8freertos11delay_untilERKNSt6chrono10time_pointINS0_3_V212steady_clockENS0_8durationIlSt5ratioILl1ELl1000000000EEEEEE
FN:54,54,_ZN8freertos19current_task_handleEv
FN:57,57,_ZN8freertos16idle_task_handleEv
FN:59,59,_ZN8freertos10tick_countEv
FN:60,60,_ZN8freertos14tick_count_isrEv
FN:61,63,_ZN8freertos28time_since_scheduler_startedEv
FN:64,66,_ZN8freertos32time_since_scheduler_started_isrEv
FN:68,68,_ZN8freertos19get_scheduler_stateEv
FN:70,70,_ZN8freertos10task_countEv
FN:71,71,_ZN8freertos5yieldEv
FNDA:8,_ZN8freertos5delayEj
FNDA:3,_ZN8freertos11delay_untilERjj
FNDA:2,_ZN8freertos11delay_untilERKNSt6chrono10time_pointINS0_3_V212system_clockENS0_8durationIlSt5ratioILl1ELl1000000000EEEEEE
FNDA:1,_ZN8freertos11delay_untilERKNSt6chrono10time_pointINS0_3_V212steady_clockENS0_8durationIlSt5ratioILl1ELl1000000000EEEEEE
FNDA:1,_ZN8freertos19current_task_handleEv
FNDA:1,_ZN8freertos16idle_task_handleEv
FNDA:2,_ZN8freertos10tick_countEv
FNDA:2,_ZN8freertos14tick_count_isrEv
FNDA:1,_ZN8freertos28time_since_scheduler_startedEv
FNDA:1,_ZN8freertos32time_since_scheduler_started_isrEv
FNDA:1,_ZN8freertos19get_scheduler_stateEv
FNDA:1,_ZN8freertos10task_countEv
FNDA:1,_ZN8freertos5yieldEv
FNF:13
FNH:13
DA:37,8
DA:38,3
DA:39,3
DA:40,3
DA:41,2
DA:42,2
DA:43,2
DA:44,1
DA:46,2
DA:47,1
DA:48,1
DA:49,1
DA:50,1
DA:52,1
DA:54,1
DA:57,1
DA:59,2
DA:60,2
DA:61,1
DA:62,1
DA:64,1
DA:65,1
DA:68,1
DA:70,1
DA:71,1
LF:25
LH:25
end_of_record
TN:
SF:/usr/include/c++/13/bits/chrono.h
FN:1141,1143,_ZNSt6chronomiINS_3_V212steady_clockENS_8durationIlSt5ratioILl1ELl1000000000EEEES6_EENSt11common_typeIJT0_T1_EE4typeERKNS_10time_pointIT_S8_EERKNSC_ISD_S9_EE
FN:1141,1143,_ZNSt6chronomiINS_3_V212system_clockENS_8durationIlSt5ratioILl1ELl1000000000EEEES6_EENSt11common_typeIJT0_T1_EE4typeERKNS_10time_pointIT_S8_EERKNSC_ISD_S9_EE
FN:1174,1176,_ZNSt6chronoltINS_3_V212steady_clockENS_8durationIlSt5ratioILl1ELl1000000000EEEES6_EEbRKNS_10time_pointIT_T0_EERKNS7_IS8_T1_EE
FN:1174,1176,_ZNSt6chronoltINS_3_V212system_clockENS_8durationIlSt5ratioILl1ELl1000000000EEEES6_EEbRKNS_10time_pointIT_T0_EERKNS7_IS8_T1_EE
FN:1186,1188,_ZNSt6chronogtINS_3_V212steady_clockENS_8durationIlSt5ratioILl1ELl1000000000EEEES6_EEbRKNS_10time_pointIT_T0_EERKNS7_IS8_T1_EE
FN:1186,1188,_ZNSt6chronogtINS_3_V212system_clockENS_8durationIlSt5ratioILl1ELl1000000000EEEES6_EEbRKNS_10time_pointIT_T0_EERKNS7_IS8_T1_EE
FN:208,213,_ZNSt6chrono20__duration_cast_implINS_8durationIlSt5ratioILl1ELl1000EEEES2_ILl1ELl1000000EElLb1ELb0EE6__castIlS2_ILl1ELl1000000000EEEES4_RKNS1_IT_T0_EE
FN:273,291,_ZNSt6chrono13duration_castINS_8durationIlSt5ratioILl1ELl1000EEEElS2_ILl1ELl1000000000EEEENSt9enable_ifIXsrNS_13__is_durationIT_EE5valueES8_E4typeERKNS1_IT0_T1_EE
FN:573,574,_ZNSt6chrono8durationIlSt5ratioILl1ELl1000000000EEEC1IlvEERKT_
FN:573,574,_ZNSt6chrono8durationIlSt5ratioILl1ELl1000EEEC2IjvEERKT_
FN:573,574,_ZNSt6chrono8durationIlSt5ratioILl1ELl1000EEEC2IlvEERKT_
FN:589,590,_ZNKSt6chrono8durationIlSt5ratioILl1ELl1000000000EEE5countEv
FN:589,590,_ZNKSt6chrono8durationIlSt5ratioILl1ELl1000EEE5countEv
FN:710,717,_ZNSt6chronomiIlSt5ratioILl1ELl1000000000EElS2_EENSt11common_typeIJNS_8durationIT_T0_EENS4_IT1_T2_EEEE4typeERKS7_RKSA_
FN:822,829,_ZNSt6chronoltIlSt5ratioILl1ELl1000000000EElS2_EEbRKNS_8durationIT_T0_EERKNS3_IT1_T2_EE
FN:949,950,_ZNKSt6chrono10time_pointINS_3_V212steady_clockENS_8durationIlSt5ratioILl1ELl1000000000EEEEE16time_since_epochEv
FN:949,950,_ZNKSt6chrono10time_pointINS_3_V212system_clockENS_8durationIlSt5ratioILl1ELl1000000000EEEEE16time_since_epochEv
FNDA:1,_ZNSt6chronomiINS_3_V212steady_clockENS_8durationIlSt5ratioILl1ELl1000000000EEEES6_EENSt11common_typeIJT0_T1_EE4typeERKNS_10time_pointIT_S8_EERKNSC_ISD_S9_EE
FNDA:1,_ZNSt6chronomiINS_3_V212system_clockENS_8durationIlSt5ratioILl1ELl1000000000EEEES6_EENSt11common_typeIJT0_T1_EE4typeERKNS_10time_pointIT_S8_EERKNSC_ISD_S9_EE
FNDA:1,_ZNSt6chronoltINS_3_V212steady_clockENS_8durationIlSt5ratioILl1ELl1000000000EEEES6_EEbRKNS_10time_pointIT_T0_EERKNS7_IS8_T1_EE
FNDA:2,_ZNSt6chronoltINS_3_V212system_clockENS_8durationIlSt5ratioILl1ELl1000000000EEEES6_EEbRKNS_10time_pointIT_T0_EERKNS7_IS8_T1_EE
FNDA:1,_ZNSt6chronogtINS_3_V212steady_clockENS_8durationIlSt5ratioILl1ELl1000000000EEEES6_EEbRKNS_10time_pointIT_T0_EERKNS7_IS8_T1_EE
FNDA:2,_ZNSt6chronogtINS_3_V212system_clockENS_8durationIlSt5ratioILl1ELl1000000000EEEES6_EEbRKNS_10time_pointIT_T0_EERKNS7_IS8_T1_EE
FNDA:2,_ZNSt6chrono20__duration_cast_implINS_8durationIlSt5ratioILl1ELl1000EEEES2_ILl1ELl1000000EElLb1ELb0EE6__castIlS2_ILl1ELl1000000000EEEES4_RKNS1_IT_T0_EE
FNDA:2,_ZNSt6chrono13duration_castINS_8durationIlSt5ratioILl1ELl1000EEEElS2_ILl1ELl1000000000EEEENSt9enable_ifIXsrNS_13__is_durationIT_EE5valueES8_E4typeERKNS1_IT0_T1_EE
FNDA:0,_ZNSt6chrono8durationIlSt5ratioILl1ELl1000000000EEEC1IlvEERKT_
FNDA:0,_ZNSt6chrono8durationIlSt5ratioILl1ELl1000EEEC2IjvEERKT_
FNDA:0,_ZNSt6chrono8durationIlSt5ratioILl1ELl1000EEEC2IlvEERKT_
FNDA:0,_ZNKSt6chrono8durationIlSt5ratioILl1ELl1000000000EEE5countEv
FNDA:0,_ZNKSt6chrono8durationIlSt5ratioILl1ELl1000EEE5countEv
FNDA:2,_ZNSt6chronomiIlSt5ratioILl1ELl1000000000EElS2_EENSt11common_typeIJNS_8durationIT_T0_EENS4_IT1_T2_EEEE4typeERKS7_RKSA_
FNDA:3,_ZNSt6chronoltIlSt5ratioILl1ELl1000000000EElS2_EEbRKNS_8durationIT_T0_EERKNS3_IT1_T2_EE
FNDA:0,_ZNKSt6chrono10time_pointINS_3_V212steady_clockENS_8durationIlSt5ratioILl1ELl1000000000EEEEE16time_since_epochEv
FNDA:0,_ZNKSt6chrono10time_pointINS_3_V212system_clockENS_8durationIlSt5ratioILl1ELl1000000000EEEEE16time_since_epochEv
FNF:17
FNH:10
DA:208,2
DA:211,4
DA:212,2
DA:273,2
DA:287,2
DA:573,0
DA:574,0
DA:589,0
DA:590,0
DA:710,2
DA:716,2
DA:822,3
DA:828,3
DA:949,0
DA:950,0
DA:1141,2
DA:1143,2
DA:1174,3
DA:1176,3
DA:1186,3
DA:1188,3
LF:21
LH:15
end_of_record
