TN:
SF:/home/runner/work/freertos_cpp_wrappers/freertos_cpp_wrappers/include/freertos_task.hpp
FN:1022,1025,_ZN8freertos18task_system_statusILm10EEC2Ev
FN:1032,1032,_ZNK8freertos18task_system_statusILm10EE5countEv
FN:1033,1035,_ZNK8freertos18task_system_statusILm10EE14total_run_timeEv
FN:1041,1041,_ZNK8freertos18task_system_statusILm10EE5beginEv
FN:1047,1049,_ZNK8freertos18task_system_statusILm10EE3endEv
FN:1129,1129,_ZN8freertos16critical_sectionC2Ev
FN:1134,1134,_ZN8freertos16critical_sectionD2Ev
FN:114,123,_ZN8freertos4taskINS_21static_task_allocatorILm0EEEE9task_execEPv
FN:114,123,_ZN8freertos4taskINS_21static_task_allocatorILm1024EEEE9task_execEPv
FN:114,123,_ZN8freertos4taskINS_21static_task_allocatorILm512EEEE9task_execEPv
FN:114,123,_ZN8freertos4taskINS_22dynamic_task_allocatorILm2048EEEE9task_execEPv
FN:1161,1163,_ZN8freertos20critical_section_isrD2Ev
FN:1183,1183,_ZN8freertos17interrupt_barrierC2Ev
FN:1188,1188,_ZN8freertos17interrupt_barrierD2Ev
FN:1208,1208,_ZN8freertos17scheduler_barrierC2Ev
FN:1213,1213,_ZN8freertos17scheduler_barrierD2Ev
FN:135,139,_ZN8freertos4taskINS_21static_task_allocatorILm0EEEEC2EPKcjOSt8functionIFvvEEb
FN:135,139,_ZN8freertos4taskINS_21static_task_allocatorILm1024EEEEC2EPKcjOSt8functionIFvvEEb
FN:135,139,_ZN8freertos4taskINS_21static_task_allocatorILm512EEEEC2EPKcjOSt8functionIFvvEEb
FN:135,139,_ZN8freertos4taskINS_22dynamic_task_allocatorILm2048EEEEC2EPKcjOSt8functionIFvvEEb
FN:148,151,_ZN8freertos4taskINS_21static_task_allocatorILm1024EEEEC2ERKNSt7__cxx1112basic_stringIcSt11char_traitsIcESaIcEEEjOSt8functionIFvvEEb
FN:176,186,_ZN8freertos4taskINS_21static_task_allocatorILm1024EEEEC2EOS3_
FN:192,198,_ZN8freertos4taskINS_21static_task_allocatorILm0EEEED2Ev
FN:192,198,_ZN8freertos4taskINS_21static_task_allocatorILm1024EEEED2Ev
FN:192,198,_ZN8freertos4taskINS_21static_task_allocatorILm512EEEED2Ev
FN:192,198,_ZN8freertos4taskINS_22dynamic_task_allocatorILm2048EEEED2Ev
FN:208,208,_ZNK8freertos4taskINS_21static_task_allocatorILm0EEEE6handleEv
FN:208,208,_ZNK8freertos4taskINS_21static_task_allocatorILm1024EEEE6handleEv
FN:208,208,_ZNK8freertos4taskINS_21static_task_allocatorILm512EEEE6handleEv
FN:208,208,_ZNK8freertos4taskINS_22dynamic_task_allocatorILm2048EEEE6handleEv
FN:214,214,_ZN8freertos4taskINS_21static_task_allocatorILm0EEEE7suspendEv
FN:214,214,_ZN8freertos4taskINS_21static_task_allocatorILm1024EEEE7suspendEv
FN:214,214,_ZN8freertos4taskINS_21static_task_allocatorILm512EEEE7suspendEv
FN:214,214,_ZN8freertos4taskINS_22dynamic_task_allocatorILm2048EEEE7suspendEv
FN:219,219,_ZN8freertos4taskINS_21static_task_allocatorILm1024EEEE6resumeEv
FN:225,225,_ZN8freertos4taskINS_21static_task_allocatorILm1024EEEE10resume_isrEv
FN:231,231,_ZN8freertos4taskINS_21static_task_allocatorILm1024EEEE9terminateEv
FN:238,240,_ZN8freertos4taskINS_21static_task_allocatorILm1024EEEE11abort_delayEv
FN:248,248,_ZNK8freertos4taskINS_21static_task_allocatorILm1024EEEE8priorityEv
FN:254,256,_ZNK8freertos4taskINS_21static_task_allocatorILm1024EEEE12priority_isrEv
FN:265,268,_ZN8freertos4taskINS_21static_task_allocatorILm1024EEEE8priorityEj
FN:278,283,_ZNK8freertos4taskINS_21static_task_allocatorILm1024EEEE6statusEi10eTaskState
FN:292,295,_ZN8freertos4taskINS_21static_task_allocatorILm1024EEEE3tagEPFvvE
FN:301,303,_ZNK8freertos4taskINS_21static_task_allocatorILm1024EEEE3tagEv
FN:309,311,_ZNK8freertos4taskINS_21static_task_allocatorILm1024EEEE7tag_isrEv
FN:319,321,_ZNK8freertos4taskINS_21static_task_allocatorILm1024EEEE21stack_high_water_markEv
FN:329,331,_ZNK8freertos4taskINS_21static_task_allocatorILm1024EEEE22stack_high_water_mark2Ev
FN:339,339,_ZNK8freertos4taskINS_21static_task_allocatorILm1024EEEE5stateEv
FN:346,346,_ZNK8freertos4taskINS_21static_task_allocatorILm1024EEEE4nameEv
FN:354,354,_ZN8freertos4taskINS_21static_task_allocatorILm1024EEEE11notify_giveEv
FN:362,365,_ZN8freertos4taskINS_21static_task_allocatorILm1024EEEE11notify_takeEij
FN:374,380,_ZN8freertos4taskINS_21static_task_allocatorILm1024EEEE11notify_takeIlSt5ratioILl1ELl1000000EEEEjiNSt6chrono8durationIT_T0_EE
FN:374,380,_ZN8freertos4taskINS_21static_task_allocatorILm1024EEEE11notify_takeIlSt5ratioILl1ELl1000EEEEjiNSt6chrono8durationIT_T0_EE
FN:374,380,_ZN8freertos4taskINS_21static_task_allocatorILm1024EEEE11notify_takeIlSt5ratioILl1ELl1EEEEjiNSt6chrono8durationIT_T0_EE
FN:374,380,_ZN8freertos4taskINS_21static_task_allocatorILm1024EEEE11notify_takeIlSt5ratioILl3600ELl1EEEEjiNSt6chrono8durationIT_T0_EE
FN:388,390,_ZN8freertos4taskINS_21static_task_allocatorILm1024EEEE6notifyEj13eNotifyAction
FN:399,402,_ZN8freertos4taskINS_21static_task_allocatorILm1024EEEE16notify_and_queryEj13eNotifyActionRj
FN:411,414,_ZN8freertos4taskINS_21static_task_allocatorILm1024EEEE10notify_isrEj13eNotifyActionPi
FN:425,430,_ZN8freertos4taskINS_21static_task_allocatorILm1024EEEE20notify_and_query_isrEj13eNotifyActionRjPi
FN:440,446,_ZN8freertos4taskINS_21static_task_allocatorILm1024EEEE11notify_waitEjjRjj
FN:457,465,_ZN8freertos4taskINS_21static_task_allocatorILm1024EEEE11notify_waitIlSt5ratioILl1ELl1000000EEEEijjRjNSt6chrono8durationIT_T0_EE
FN:457,465,_ZN8freertos4taskINS_21static_task_allocatorILm1024EEEE11notify_waitIlSt5ratioILl1ELl1000EEEEijjRjNSt6chrono8durationIT_T0_EE
FN:457,465,_ZN8freertos4taskINS_21static_task_allocatorILm1024EEEE11notify_waitIlSt5ratioILl1ELl1EEEEijjRjNSt6chrono8durationIT_T0_EE
FN:472,472,_ZN8freertos4taskINS_21static_task_allocatorILm1024EEEE18notify_state_clearEv
FN:479,481,_ZN8freertos4taskINS_21static_task_allocatorILm1024EEEE18notify_value_clearEj
FN:497,511,_ZN8freertos13periodic_taskINS_21static_task_allocatorILm1024EEEE3runEv
FN:528,536,_ZN8freertos13periodic_taskINS_21static_task_allocatorILm1024EEEEC2IlSt5ratioILl1ELl1000EEEEPKcjOSt8functionIFvvEESC_SC_RKNSt6chrono8durationIT_T0_EEb
FN:536,536,_ZZN8freertos13periodic_taskINS_21static_task_allocatorILm1024EEEEC4IlSt5ratioILl1ELl1000EEEEPKcjOSt8functionIFvvEESC_SC_RKNSt6chrono8durationIT_T0_EEbENKUlvE_clEv
FN:551,562,_ZN8freertos13periodic_taskINS_21static_task_allocatorILm1024EEEEC2IlSt5ratioILl1ELl1000EEEERKNSt7__cxx1112basic_stringIcSt11char_traitsIcESaIcEEEjOSt8functionIFvvEESI_SI_RKNSt6chrono8durationIT_T0_EEb
FN:573,582,_ZN8freertos13periodic_taskINS_21static_task_allocatorILm1024EEEEC2EPKcjOSt8functionIFvvEES9_S9_b
FN:603,609,_ZN8freertos13periodic_taskINS_21static_task_allocatorILm1024EEEEC2EOS3_
FN:615,619,_ZN8freertos13periodic_taskINS_21static_task_allocatorILm1024EEEED2Ev
FN:62,62,_ZN8freertos21static_task_allocatorILm0EEC2Ev
FN:62,62,_ZN8freertos21static_task_allocatorILm1024EEC2Ev
FN:62,62,_ZN8freertos21static_task_allocatorILm512EEC2Ev
FN:629,629,_ZNK8freertos13periodic_taskINS_21static_task_allocatorILm1024EEEE6handleEv
FN:635,635,_ZN8freertos13periodic_taskINS_21static_task_allocatorILm1024EEEE7suspendEv
FN:640,640,_ZN8freertos13periodic_taskINS_21static_task_allocatorILm1024EEEE6resumeEv
FN:653,663,_ZNK8freertos13periodic_taskINS_21static_task_allocatorILm1024EEEE10is_runningEv
FN:668,668,_ZN8freertos13periodic_taskINS_21static_task_allocatorILm1024EEEE9terminateEv
FN:70,75,_ZN8freertos21static_task_allocatorILm0EE6createEPFvPvEPKcjS2_
FN:70,75,_ZN8freertos21static_task_allocatorILm1024EE6createEPFvPvEPKcjS2_
FN:70,75,_ZN8freertos21static_task_allocatorILm512EE6createEPFvPvEPKcjS2_
FN:781,781,_ZN8freertos13periodic_taskINS_21static_task_allocatorILm1024EEEE11notify_giveEv
FN:789,792,_ZN8freertos13periodic_taskINS_21static_task_allocatorILm1024EEEE11notify_takeEij
FN:815,817,_ZN8freertos13periodic_taskINS_21static_task_allocatorILm1024EEEE6notifyEj13eNotifyAction
FN:826,829,_ZN8freertos13periodic_taskINS_21static_task_allocatorILm1024EEEE16notify_and_queryEj13eNotifyActionRj
FN:85,91,_ZN8freertos22dynamic_task_allocatorILm1024EE6createEPFvPvEPKcjS2_
FN:85,91,_ZN8freertos22dynamic_task_allocatorILm2048EE6createEPFvPvEPKcjS2_
FN:923,923,_ZN8freertos13periodic_taskINS_21static_task_allocatorILm1024EEEE18notify_state_clearEv
FN:930,932,_ZN8freertos13periodic_taskINS_21static_task_allocatorILm1024EEEE18notify_value_clearEj
FN:953,956,_ZN8freertos5delayIlSt5ratioILl1ELl1000000000EEEEvNSt6chrono8durationIT_T0_EE
FN:953,956,_ZN8freertos5delayIlSt5ratioILl1ELl1000EEEEvNSt6chrono8durationIT_T0_EE
FN:953,956,_ZN8freertos5delayIlSt5ratioILl1ELl1EEEEvNSt6chrono8durationIT_T0_EE
FN:966,968,_ZN8freertos9sleep_forIlSt5ratioILl1ELl1000EEEEvNSt6chrono8durationIT_T0_EE
FN:980,985,_ZN8freertos11delay_untilIlSt5ratioILl1ELl1000EEEEvRjNSt6chrono8durationIT_T0_EE
FNDA:3,_ZN8freertos18task_system_statusILm10EEC2Ev
FNDA:3,_ZNK8freertos18task_system_statusILm10EE5countEv
FNDA:3,_ZNK8freertos18task_system_statusILm10EE14total_run_timeEv
FNDA:3,_ZNK8freertos18task_system_statusILm10EE5beginEv
FNDA:3,_ZNK8freertos18task_system_statusILm10EE3endEv
FNDA:1,_ZN8freertos16critical_sectionC2Ev
FNDA:1,_ZN8freertos16critical_sectionD2Ev
FNDA:0,_ZN8freertos4taskINS_21static_task_allocatorILm0EEEE9task_execEPv
FNDA:0,_ZN8freertos4taskINS_21static_task_allocatorILm1024EEEE9task_execEPv
FNDA:0,_ZN8freertos4taskINS_21static_task_allocatorILm512EEEE9task_execEPv
FNDA:0,_ZN8freertos4taskINS_22dynamic_task_allocatorILm2048EEEE9task_execEPv
FNDA:1,_ZN8freertos20critical_section_isrD2Ev
FNDA:1,_ZN8freertos17interrupt_barrierC2Ev
FNDA:1,_ZN8freertos17interrupt_barrierD2Ev
FNDA:1,_ZN8freertos17scheduler_barrierC2Ev
FNDA:1,_ZN8freertos17scheduler_barrierD2Ev
FNDA:1,_ZN8freertos4taskINS_21static_task_allocatorILm0EEEEC2EPKcjOSt8functionIFvvEEb
FNDA:48,_ZN8freertos4taskINS_21static_task_allocatorILm1024EEEEC2EPKcjOSt8functionIFvvEEb
FNDA:7,_ZN8freertos4taskINS_21static_task_allocatorILm512EEEEC2EPKcjOSt8functionIFvvEEb
FNDA:3,_ZN8freertos4taskINS_22dynamic_task_allocatorILm2048EEEEC2EPKcjOSt8functionIFvvEEb
FNDA:1,_ZN8freertos4taskINS_21static_task_allocatorILm1024EEEEC2ERKNSt7__cxx1112basic_stringIcSt11char_traitsIcESaIcEEEjOSt8functionIFvvEEb
FNDA:3,_ZN8freertos4taskINS_21static_task_allocatorILm1024EEEEC2EOS3_
FNDA:1,_ZN8freertos4taskINS_21static_task_allocatorILm0EEEED2Ev
FNDA:51,_ZN8freertos4taskINS_21static_task_allocatorILm1024EEEED2Ev
FNDA:7,_ZN8freertos4taskINS_21static_task_allocatorILm512EEEED2Ev
FNDA:3,_ZN8freertos4taskINS_22dynamic_task_allocatorILm2048EEEED2Ev
FNDA:1,_ZNK8freertos4taskINS_21static_task_allocatorILm0EEEE6handleEv
FNDA:23,_ZNK8freertos4taskINS_21static_task_allocatorILm1024EEEE6handleEv
FNDA:4,_ZNK8freertos4taskINS_21static_task_allocatorILm512EEEE6handleEv
FNDA:3,_ZNK8freertos4taskINS_22dynamic_task_allocatorILm2048EEEE6handleEv
FNDA:0,_ZN8freertos4taskINS_21static_task_allocatorILm0EEEE7suspendEv
FNDA:5,_ZN8freertos4taskINS_21static_task_allocatorILm1024EEEE7suspendEv
FNDA:0,_ZN8freertos4taskINS_21static_task_allocatorILm512EEEE7suspendEv
FNDA:0,_ZN8freertos4taskINS_22dynamic_task_allocatorILm2048EEEE7suspendEv
FNDA:4,_ZN8freertos4taskINS_21static_task_allocatorILm1024EEEE6resumeEv
FNDA:1,_ZN8freertos4taskINS_21static_task_allocatorILm1024EEEE10resume_isrEv
FNDA:2,_ZN8freertos4taskINS_21static_task_allocatorILm1024EEEE9terminateEv
FNDA:16,_ZN8freertos4taskINS_21static_task_allocatorILm1024EEEE11abort_delayEv
FNDA:6,_ZNK8freertos4taskINS_21static_task_allocatorILm1024EEEE8priorityEv
FNDA:1,_ZNK8freertos4taskINS_21static_task_allocatorILm1024EEEE12priority_isrEv
FNDA:4,_ZN8freertos4taskINS_21static_task_allocatorILm1024EEEE8priorityEj
FNDA:2,_ZNK8freertos4taskINS_21static_task_allocatorILm1024EEEE6statusEi10eTaskState
FNDA:1,_ZN8freertos4taskINS_21static_task_allocatorILm1024EEEE3tagEPFvvE
FNDA:1,_ZNK8freertos4taskINS_21static_task_allocatorILm1024EEEE3tagEv
FNDA:1,_ZNK8freertos4taskINS_21static_task_allocatorILm1024EEEE7tag_isrEv
FNDA:1,_ZNK8freertos4taskINS_21static_task_allocatorILm1024EEEE21stack_high_water_markEv
FNDA:1,_ZNK8freertos4taskINS_21static_task_allocatorILm1024EEEE22stack_high_water_mark2Ev
FNDA:11,_ZNK8freertos4taskINS_21static_task_allocatorILm1024EEEE5stateEv
FNDA:1,_ZNK8freertos4taskINS_21static_task_allocatorILm1024EEEE4nameEv
FNDA:2,_ZN8freertos4taskINS_21static_task_allocatorILm1024EEEE11notify_giveEv
FNDA:8,_ZN8freertos4taskINS_21static_task_allocatorILm1024EEEE11notify_takeEij
FNDA:3,_ZN8freertos4taskINS_21static_task_allocatorILm1024EEEE11notify_takeIlSt5ratioILl1ELl1000000EEEEjiNSt6chrono8durationIT_T0_EE
FNDA:1,_ZN8freertos4taskINS_21static_task_allocatorILm1024EEEE11notify_takeIlSt5ratioILl1ELl1000EEEEjiNSt6chrono8durationIT_T0_EE
FNDA:1,_ZN8freertos4taskINS_21static_task_allocatorILm1024EEEE11notify_takeIlSt5ratioILl1ELl1EEEEjiNSt6chrono8durationIT_T0_EE
FNDA:1,_ZN8freertos4taskINS_21static_task_allocatorILm1024EEEE11notify_takeIlSt5ratioILl3600ELl1EEEEjiNSt6chrono8durationIT_T0_EE
FNDA:4,_ZN8freertos4taskINS_21static_task_allocatorILm1024EEEE6notifyEj13eNotifyAction
FNDA:7,_ZN8freertos4taskINS_21static_task_allocatorILm1024EEEE16notify_and_queryEj13eNotifyActionRj
FNDA:3,_ZN8freertos4taskINS_21static_task_allocatorILm1024EEEE10notify_isrEj13eNotifyActionPi
FNDA:1,_ZN8freertos4taskINS_21static_task_allocatorILm1024EEEE20notify_and_query_isrEj13eNotifyActionRjPi
FNDA:6,_ZN8freertos4taskINS_21static_task_allocatorILm1024EEEE11notify_waitEjjRjj
FNDA:1,_ZN8freertos4taskINS_21static_task_allocatorILm1024EEEE11notify_waitIlSt5ratioILl1ELl1000000EEEEijjRjNSt6chrono8durationIT_T0_EE
FNDA:2,_ZN8freertos4taskINS_21static_task_allocatorILm1024EEEE11notify_waitIlSt5ratioILl1ELl1000EEEEijjRjNSt6chrono8durationIT_T0_EE
FNDA:2,_ZN8freertos4taskINS_21static_task_allocatorILm1024EEEE11notify_waitIlSt5ratioILl1ELl1EEEEijjRjNSt6chrono8durationIT_T0_EE
FNDA:2,_ZN8freertos4taskINS_21static_task_allocatorILm1024EEEE18notify_state_clearEv
FNDA:2,_ZN8freertos4taskINS_21static_task_allocatorILm1024EEEE18notify_value_clearEj
FNDA:0,_ZN8freertos13periodic_taskINS_21static_task_allocatorILm1024EEEE3runEv
FNDA:11,_ZN8freertos13periodic_taskINS_21static_task_allocatorILm1024EEEEC2IlSt5ratioILl1ELl1000EEEEPKcjOSt8functionIFvvEESC_SC_RKNSt6chrono8durationIT_T0_EEb
FNDA:0,_ZZN8freertos13periodic_taskINS_21static_task_allocatorILm1024EEEEC4IlSt5ratioILl1ELl1000EEEEPKcjOSt8functionIFvvEESC_SC_RKNSt6chrono8durationIT_T0_EEbENKUlvE_clEv
FNDA:1,_ZN8freertos13periodic_taskINS_21static_task_allocatorILm1024EEEEC2IlSt5ratioILl1ELl1000EEEERKNSt7__cxx1112basic_stringIcSt11char_traitsIcESaIcEEEjOSt8functionIFvvEESI_SI_RKNSt6chrono8durationIT_T0_EEb
FNDA:1,_ZN8freertos13periodic_taskINS_21static_task_allocatorILm1024EEEEC2EPKcjOSt8functionIFvvEES9_S9_b
FNDA:1,_ZN8freertos13periodic_taskINS_21static_task_allocatorILm1024EEEEC2EOS3_
FNDA:12,_ZN8freertos13periodic_taskINS_21static_task_allocatorILm1024EEEED2Ev
FNDA:1,_ZN8freertos21static_task_allocatorILm0EEC2Ev
FNDA:51,_ZN8freertos21static_task_allocatorILm1024EEC2Ev
FNDA:7,_ZN8freertos21static_task_allocatorILm512EEC2Ev
FNDA:7,_ZNK8freertos13periodic_taskINS_21static_task_allocatorILm1024EEEE6handleEv
FNDA:1,_ZN8freertos13periodic_taskINS_21static_task_allocatorILm1024EEEE7suspendEv
FNDA:2,_ZN8freertos13periodic_taskINS_21static_task_allocatorILm1024EEEE6resumeEv
FNDA:6,_ZNK8freertos13periodic_taskINS_21static_task_allocatorILm1024EEEE10is_runningEv
FNDA:1,_ZN8freertos13periodic_taskINS_21static_task_allocatorILm1024EEEE9terminateEv
FNDA:1,_ZN8freertos21static_task_allocatorILm0EE6createEPFvPvEPKcjS2_
FNDA:50,_ZN8freertos21static_task_allocatorILm1024EE6createEPFvPvEPKcjS2_
FNDA:7,_ZN8freertos21static_task_allocatorILm512EE6createEPFvPvEPKcjS2_
FNDA:1,_ZN8freertos13periodic_taskINS_21static_task_allocatorILm1024EEEE11notify_giveEv
FNDA:1,_ZN8freertos13periodic_taskINS_21static_task_allocatorILm1024EEEE11notify_takeEij
FNDA:1,_ZN8freertos13periodic_taskINS_21static_task_allocatorILm1024EEEE6notifyEj13eNotifyAction
FNDA:1,_ZN8freertos13periodic_taskINS_21static_task_allocatorILm1024EEEE16notify_and_queryEj13eNotifyActionRj
FNDA:2,_ZN8freertos22dynamic_task_allocatorILm1024EE6createEPFvPvEPKcjS2_
FNDA:3,_ZN8freertos22dynamic_task_allocatorILm2048EE6createEPFvPvEPKcjS2_
FNDA:1,_ZN8freertos13periodic_taskINS_21static_task_allocatorILm1024EEEE18notify_state_clearEv
FNDA:1,_ZN8freertos13periodic_taskINS_21static_task_allocatorILm1024EEEE18notify_value_clearEj
FNDA:4,_ZN8freertos5delayIlSt5ratioILl1ELl1000000000EEEEvNSt6chrono8durationIT_T0_EE
FNDA:4,_ZN8freertos5delayIlSt5ratioILl1ELl1000EEEEvNSt6chrono8durationIT_T0_EE
FNDA:1,_ZN8freertos5delayIlSt5ratioILl1ELl1EEEEvNSt6chrono8durationIT_T0_EE
FNDA:2,_ZN8freertos9sleep_forIlSt5ratioILl1ELl1000EEEEvNSt6chrono8durationIT_T0_EE
FNDA:2,_ZN8freertos11delay_untilIlSt5ratioILl1ELl1000EEEEvRjNSt6chrono8durationIT_T0_EE
FNF:96
FNH:87
DA:62,59
DA:70,58
DA:72,116
DA:74,58
DA:85,5
DA:87,5
DA:88,5
DA:90,10
DA:114,0
DA:115,0
DA:116,0
DA:118,0
DA:119,0
DA:122,0
DA:123,0
DA:135,59
DA:137,59
DA:138,59
DA:139,59
DA:148,1
DA:150,1
DA:151,1
DA:176,3
DA:177,3
DA:178,3
DA:181,3
DA:184,3
DA:186,3
DA:192,62
DA:194,62
DA:195,52
DA:198,62
DA:208,31
DA:214,5
DA:219,4
DA:225,1
DA:231,2
DA:238,16
DA:239,16
DA:248,6
DA:254,1
DA:255,1
DA:265,4
DA:266,4
DA:267,4
DA:278,2
DA:281,2
DA:282,2
DA:292,1
DA:293,1
DA:294,1
DA:301,1
DA:302,1
DA:309,1
DA:310,1
DA:319,1
DA:320,1
DA:329,1
DA:330,1
DA:339,11
DA:346,1
DA:354,2
DA:362,8
DA:364,8
DA:374,6
DA:376,6
DA:378,12
DA:379,18
DA:388,4
DA:389,4
DA:399,7
DA:401,7
DA:411,3
DA:413,3
DA:425,1
DA:428,1
DA:429,1
DA:440,6
DA:444,6
DA:445,6
DA:457,5
DA:461,5
DA:463,10
DA:464,15
DA:472,2
DA:479,2
DA:480,2
DA:497,0
DA:498,0
DA:499,0
DA:500,0
DA:502,0
DA:503,0
DA:508,0
DA:510,0
DA:511,0
DA:528,11
DA:533,11
DA:534,11
DA:535,11
DA:536,11
DA:551,1
DA:558,1
DA:559,1
DA:560,1
DA:562,2
DA:573,1
DA:578,1
DA:579,1
DA:580,1
DA:581,1
DA:582,2
DA:603,1
DA:604,1
DA:605,1
DA:606,1
DA:607,1
DA:609,1
DA:615,12
DA:617,12
DA:619,12
DA:629,7
DA:635,1
DA:640,2
DA:653,6
DA:654,6
DA:655,4
DA:659,4
DA:660,2
DA:661,2
DA:668,1
DA:781,1
DA:789,1
DA:791,1
DA:815,1
DA:816,1
DA:826,1
DA:828,1
DA:923,1
DA:930,1
DA:931,1
DA:953,9
DA:954,9
DA:955,9
DA:956,9
DA:966,2
DA:967,2
DA:968,2
DA:980,2
DA:982,2
DA:984,2
DA:985,2
DA:1022,3
DA:1023,6
DA:1025,3
DA:1032,3
DA:1033,3
DA:1034,3
DA:1041,3
DA:1047,3
DA:1048,3
DA:1129,1
DA:1134,1
DA:1161,1
DA:1163,1
DA:1183,1
DA:1188,1
DA:1208,1
DA:1213,1
LF:169
LH:153
end_of_record
